(dp1
S'ADV'
p2
I7
sS'RAD'
p3
I5
sS'SBV'
p4
I8
sS'DBL'
p5
I11
sS'VOB'
p6
I6
sS'LAD'
p7
I12
sS'HED'
p8
I0
sS'start'
p9
I1
sS'ATT'
p10
I2
sS'FOB'
p11
I14
sS'WP'
p12
I3
sS'unk'
p13
I15
sS'POB'
p14
I4
sS'IOB'
p15
I13
sS'COO'
p16
I10
sS'CMP'
p17
I9
s.