(dp1
I0
S'Root'
p2
sI1
S'ns'
p3
sI2
S'v'
sI3
S'n'
sI4
S'wp'
p4
sI5
S'u'
sI6
S'p'
sI7
S'r'
sI8
S'm'
sI9
S'nt'
p5
sI10
S'q'
sI11
S'd'
sI12
S'a'
sI13
S'nh'
p6
sI14
S'nd'
p7
sI15
S'c'
sI16
S'nz'
p8
sI17
S'e'
sI18
S'j'
sI19
S'i'
sI20
S'o'
sI21
S'ws'
p9
sI22
S'nl'
p10
sI23
S'b'
sI24
S'unk'
p11
s.