(dp1
I0
S'start'
p2
sI1
S'ATT'
p3
sI2
S'WP'
p4
sI3
S'HED'
p5
sI4
S'POB'
p6
sI5
S'RAD'
p7
sI6
S'VOB'
p8
sI7
S'ADV'
p9
sI8
S'SBV'
p10
sI9
S'CMP'
p11
sI10
S'COO'
p12
sI11
S'DBL'
p13
sI12
S'LAD'
p14
sI13
S'IOB'
p15
sI14
S'FOB'
p16
sI15
S'unk'
p17
s.