(dp1
I0
S'ns'
p2
sI1
S'v'
sI2
S'n'
sI3
S'wp'
p3
sI4
S'u'
sI5
S'p'
sI6
S'r'
sI7
S'm'
sI8
S'nt'
p4
sI9
S'q'
sI10
S'd'
sI11
S'a'
sI12
S'nh'
p5
sI13
S'nd'
p6
sI14
S'c'
sI15
S'nz'
p7
sI16
S'e'
sI17
S'j'
sI18
S'i'
sI19
S'o'
sI20
S'ws'
p8
sI21
S'nl'
p9
sI22
S'b'
sI23
S'unk'
p10
s.