(dp1
S'B-start_city'
p2
I2
sS'B-start_airport'
p3
I8
sS'I-cost_relative'
p4
I12
sS'B-start_time'
p5
I9
sS'I-start_city'
p6
I13
sS'I-start_time'
p7
I14
sS'O'
I0
sS'B-or'
p8
I15
sS'B-arrival_city'
p9
I1
sS'B-arrival_airport'
p10
I6
sS'I-arrival_airport'
p11
I5
sS'I-start_date'
p12
I4
sS'I-start_airport'
p13
I7
sS'I-arrival_city'
p14
I10
sS'B-start_date'
p15
I3
sS'B-cost_relative'
p16
I11
s.