(dp1
S'B-start_city'
p2
I2
sS'B-start_airport'
p3
I8
sS'B-airline'
p4
I15
sS'I-cost_relative'
p5
I12
sS'B-start_time'
p6
I9
sS'I-start_city'
p7
I13
sS'I-start_time'
p8
I14
sS'O'
I0
sS'B-or'
p9
I17
sS'B-arrival_city'
p10
I1
sS'B-arrival_airport'
p11
I6
sS'I-arrival_airport'
p12
I5
sS'I-start_date'
p13
I4
sS'I-start_airport'
p14
I7
sS'I-arrival_city'
p15
I10
sS'B-start_date'
p16
I3
sS'I-airline'
p17
I16
sS'B-cost_relative'
p18
I11
s.