(dp1
S'nh'
p2
I12
sS'nl'
p3
I21
sS'nd'
p4
I13
sS'nz'
p5
I15
sS'ns'
p6
I0
sS'nt'
p7
I8
sS'ws'
p8
I20
sS'wp'
p9
I3
sS'a'
I11
sS'c'
I14
sS'b'
I22
sS'e'
I16
sS'd'
I10
sS'i'
I18
sS'j'
I17
sS'm'
I7
sS'o'
I19
sS'n'
I2
sS'q'
I9
sS'p'
I5
sS'r'
I6
sS'u'
I4
sS'v'
I1
sS'unk'
p10
I23
s.