(dp1
S'nh'
p2
I13
sS'nl'
p3
I22
sS'nd'
p4
I14
sS'nz'
p5
I16
sS'ns'
p6
I1
sS'nt'
p7
I9
sS'ws'
p8
I21
sS'wp'
p9
I4
sS'Root'
p10
I0
sS'a'
I12
sS'c'
I15
sS'b'
I23
sS'e'
I17
sS'd'
I11
sS'i'
I19
sS'j'
I18
sS'm'
I8
sS'o'
I20
sS'n'
I3
sS'q'
I10
sS'p'
I6
sS'r'
I7
sS'u'
I5
sS'v'
I2
sS'unk'
p11
I24
s.