(dp1
I0
S'O'
sI1
S'B-arrival_city'
p2
sI2
S'B-start_city'
p3
sI3
S'B-start_date'
p4
sI4
S'I-start_date'
p5
sI5
S'I-arrival_airport'
p6
sI6
S'B-arrival_airport'
p7
sI7
S'I-start_airport'
p8
sI8
S'B-start_airport'
p9
sI9
S'B-start_time'
p10
sI10
S'I-arrival_city'
p11
sI11
S'B-cost_relative'
p12
sI12
S'I-cost_relative'
p13
sI13
S'I-start_city'
p14
sI14
S'I-start_time'
p15
sI15
S'B-airline'
p16
sI16
S'I-airline'
p17
sI17
S'B-or'
p18
s.