(dp1
I0
S'UNK'
p2
sI1
S'O'
sI2
S'B-arrival_city'
p3
sI3
S'B-start_city'
p4
sI4
S'B-start_date'
p5
sI5
S'I-start_date'
p6
sI6
S'I-arrival_airport'
p7
sI7
S'B-arrival_airport'
p8
sI8
S'I-start_airport'
p9
sI9
S'B-start_airport'
p10
sI10
S'B-start_time'
p11
sI11
S'I-arrival_city'
p12
sI12
S'B-cost_relative'
p13
sI13
S'I-cost_relative'
p14
sI14
S'I-start_city'
p15
sI15
S'I-start_time'
p16
sI16
S'B-airline'
p17
sI17
S'I-airline'
p18
sI18
S'Ot'
p19
sI19
S'B-or'
p20
sI20
S'Oy'
p21
s.