(dp1
S'Ot'
p2
I18
sS'I-arrival_city'
p3
I11
sS'B-start_city'
p4
I3
sS'B-start_airport'
p5
I9
sS'B-airline'
p6
I16
sS'I-cost_relative'
p7
I13
sS'B-start_time'
p8
I10
sS'I-start_city'
p9
I14
sS'I-start_time'
p10
I15
sS'O'
I1
sS'B-or'
p11
I19
sS'B-arrival_city'
p12
I2
sS'B-arrival_airport'
p13
I7
sS'I-arrival_airport'
p14
I6
sS'I-start_date'
p15
I5
sS'Oy'
p16
I20
sS'I-start_airport'
p17
I8
sS'UNK'
p18
I0
sS'B-start_date'
p19
I4
sS'I-airline'
p20
I17
sS'B-cost_relative'
p21
I12
s.